; Function Attrs: mustprogress nounwind uwtable
define hidden noundef ptr @_ZN11OptoRuntime13Math_D_D_TypeEv() local_unnamed_addr #0 align 2 {
  %1 = tail call noundef ptr @_ZN9TypeTuple6fieldsEj(i32 noundef 2) #12
  %2 = load ptr, ptr @_ZN4Type6DOUBLEE, align 8
  %3 = getelementptr inbounds i8, ptr %1, i64 40
  store ptr %2, ptr %3, align 8
  %4 = load ptr, ptr @_ZN4Type4HALFE, align 8
  %5 = getelementptr inbounds i8, ptr %1, i64 48
  store ptr %4, ptr %5, align 8
  %6 = tail call noundef ptr @_ZN9TypeTuple4makeEjPPK4Type(i32 noundef 7, ptr noundef %1) #12
  %7 = tail call noundef ptr @_ZN9TypeTuple6fieldsEj(i32 noundef 2) #12
  %8 = load ptr, ptr @_ZN4Type6DOUBLEE, align 8
  %9 = getelementptr inbounds i8, ptr %7, i64 40
  store ptr %8, ptr %9, align 8
  %10 = load ptr, ptr @_ZN4Type4HALFE, align 8
  %11 = getelementptr inbounds i8, ptr %7, i64 48
  store ptr %10, ptr %11, align 8
  %12 = tail call noundef ptr @_ZN9TypeTuple4makeEjPPK4Type(i32 noundef 7, ptr noundef %7) #12
  %13 = tail call noundef ptr @_ZN8TypeFunc4makeEPK9TypeTupleS2_(ptr noundef %6, ptr noundef %12) #12
  ret ptr %13
}